; ModuleID = '29/362.c'
source_filename = "29/362.c"
target datalayout = "e-m:e-p270:32:32-p271:32:32-p272:64:64-i64:64-f80:128-n8:16:32:64-S128"
target triple = "x86_64-pc-linux-gnu"

@.str = private unnamed_addr constant [3 x i8] c"%d\00", align 1
@.str.1 = private unnamed_addr constant [6 x i8] c"%.3f\0A\00", align 1

; Function Attrs: noinline nounwind uwtable
define dso_local i32 @main() #0 {
  %1 = alloca i32, align 4
  %2 = alloca [1000 x float], align 16
  %3 = alloca [1000 x float], align 16
  %4 = alloca i32, align 4
  %5 = alloca i32, align 4
  %6 = alloca i32, align 4
  %7 = alloca i32, align 4
  %8 = alloca i32, align 4
  %9 = alloca float, align 4
  store i32 0, i32* %1, align 4
  %10 = call i32 (i8*, ...) @__isoc99_scanf(i8* getelementptr inbounds ([3 x i8], [3 x i8]* @.str, i64 0, i64 0), i32* %4)
  %11 = getelementptr inbounds [1000 x float], [1000 x float]* %2, i64 0, i64 0
  store float 2.000000e+00, float* %11, align 16
  %12 = getelementptr inbounds [1000 x float], [1000 x float]* %2, i64 0, i64 1
  store float 3.000000e+00, float* %12, align 4
  %13 = getelementptr inbounds [1000 x float], [1000 x float]* %3, i64 0, i64 0
  store float 1.000000e+00, float* %13, align 16
  %14 = getelementptr inbounds [1000 x float], [1000 x float]* %3, i64 0, i64 1
  store float 2.000000e+00, float* %14, align 4
  store i32 0, i32* %6, align 4
  br label %15

15:                                               ; preds = %76, %0
  %16 = load i32, i32* %6, align 4
  %17 = load i32, i32* %4, align 4
  %18 = icmp slt i32 %16, %17
  br i1 %18, label %19, label %79

19:                                               ; preds = %15
  store float 0.000000e+00, float* %9, align 4
  %20 = call i32 (i8*, ...) @__isoc99_scanf(i8* getelementptr inbounds ([3 x i8], [3 x i8]* @.str, i64 0, i64 0), i32* %5)
  store i32 0, i32* %7, align 4
  br label %21

21:                                               ; preds = %69, %19
  %22 = load i32, i32* %7, align 4
  %23 = load i32, i32* %5, align 4
  %24 = icmp slt i32 %22, %23
  br i1 %24, label %25, label %72

25:                                               ; preds = %21
  %26 = load i32, i32* %7, align 4
  %27 = icmp sge i32 %26, 2
  br i1 %27, label %28, label %57

28:                                               ; preds = %25
  %29 = load i32, i32* %7, align 4
  %30 = sub nsw i32 %29, 1
  %31 = sext i32 %30 to i64
  %32 = getelementptr inbounds [1000 x float], [1000 x float]* %2, i64 0, i64 %31
  %33 = load float, float* %32, align 4
  %34 = load i32, i32* %7, align 4
  %35 = sub nsw i32 %34, 2
  %36 = sext i32 %35 to i64
  %37 = getelementptr inbounds [1000 x float], [1000 x float]* %2, i64 0, i64 %36
  %38 = load float, float* %37, align 4
  %39 = fadd float %33, %38
  %40 = load i32, i32* %7, align 4
  %41 = sext i32 %40 to i64
  %42 = getelementptr inbounds [1000 x float], [1000 x float]* %2, i64 0, i64 %41
  store float %39, float* %42, align 4
  %43 = load i32, i32* %7, align 4
  %44 = sub nsw i32 %43, 1
  %45 = sext i32 %44 to i64
  %46 = getelementptr inbounds [1000 x float], [1000 x float]* %3, i64 0, i64 %45
  %47 = load float, float* %46, align 4
  %48 = load i32, i32* %7, align 4
  %49 = sub nsw i32 %48, 2
  %50 = sext i32 %49 to i64
  %51 = getelementptr inbounds [1000 x float], [1000 x float]* %3, i64 0, i64 %50
  %52 = load float, float* %51, align 4
  %53 = fadd float %47, %52
  %54 = load i32, i32* %7, align 4
  %55 = sext i32 %54 to i64
  %56 = getelementptr inbounds [1000 x float], [1000 x float]* %3, i64 0, i64 %55
  store float %53, float* %56, align 4
  br label %57

57:                                               ; preds = %28, %25
  %58 = load float, float* %9, align 4
  %59 = load i32, i32* %7, align 4
  %60 = sext i32 %59 to i64
  %61 = getelementptr inbounds [1000 x float], [1000 x float]* %2, i64 0, i64 %60
  %62 = load float, float* %61, align 4
  %63 = load i32, i32* %7, align 4
  %64 = sext i32 %63 to i64
  %65 = getelementptr inbounds [1000 x float], [1000 x float]* %3, i64 0, i64 %64
  %66 = load float, float* %65, align 4
  %67 = fdiv float %62, %66
  %68 = fadd float %58, %67
  store float %68, float* %9, align 4
  br label %69

69:                                               ; preds = %57
  %70 = load i32, i32* %7, align 4
  %71 = add nsw i32 %70, 1
  store i32 %71, i32* %7, align 4
  br label %21

72:                                               ; preds = %21
  %73 = load float, float* %9, align 4
  %74 = fpext float %73 to double
  %75 = call i32 (i8*, ...) @printf(i8* getelementptr inbounds ([6 x i8], [6 x i8]* @.str.1, i64 0, i64 0), double %74)
  br label %76

76:                                               ; preds = %72
  %77 = load i32, i32* %6, align 4
  %78 = add nsw i32 %77, 1
  store i32 %78, i32* %6, align 4
  br label %15

79:                                               ; preds = %15
  %80 = call i32 @getchar()
  %81 = call i32 @getchar()
  %82 = load i32, i32* %1, align 4
  ret i32 %82
}

declare dso_local i32 @__isoc99_scanf(i8*, ...) #1

declare dso_local i32 @printf(i8*, ...) #1

declare dso_local i32 @getchar() #1


!llvm.module.flags = !{!0}
!llvm.ident = !{!1}

!0 = !{i32 1, !"wchar_size", i32 4}
!1 = !{!"clang version 10.0.0-4ubuntu1 "}
